; Function Attrs: mustprogress uwtable
define void @_ZN13sentencepiece10ModelProtoC2EPN6google8protobuf5ArenaE(ptr noundef nonnull align 8 dereferenceable(104) initializes((0, 16)) %0, ptr noundef %1) unnamed_addr #3 align 2 personality ptr @__gxx_personality_v0 {
_ZN6google8protobuf8internal7HasBitsILm1EEC2Ev.exit:
  %2 = getelementptr inbounds nuw i8, ptr %0, i64 8
  store ptr %1, ptr %2, align 8, !tbaa !3
  store ptr getelementptr inbounds nuw inrange(-16, 112) (i8, ptr @_ZTVN13sentencepiece10ModelProtoE, i64 16), ptr %0, align 8, !tbaa !8
  %3 = getelementptr inbounds nuw i8, ptr %0, i64 16
  tail call void @_ZN6google8protobuf8internal12ExtensionSetC1EPNS0_5ArenaE(ptr noundef nonnull align 8 dereferenceable(24) %3, ptr noundef %1)
  %.ptr = getelementptr inbounds nuw i8, ptr %0, i64 40
  store i32 0, ptr %.ptr, align 8, !tbaa !11
  %4 = getelementptr inbounds nuw i8, ptr %0, i64 44
  store i32 0, ptr %4, align 4, !tbaa !13
  %5 = getelementptr inbounds nuw i8, ptr %0, i64 48
  store ptr %1, ptr %5, align 8, !tbaa !46
  %6 = getelementptr inbounds nuw i8, ptr %0, i64 56
  tail call void @llvm.memset.p0.i64(ptr noundef nonnull align 8 dereferenceable(16) %6, i8 0, i64 16, i1 false)
  %7 = load atomic i32, ptr @scc_info_ModelProto_sentencepiece_5fmodel_2eproto acquire, align 8
  %.not.i.i = icmp eq i32 %7, 0
  br i1 %.not.i.i, label %9, label %8, !prof !10

8:                                                ; preds = %_ZN6google8protobuf8internal7HasBitsILm1EEC2Ev.exit
  invoke void @_ZN6google8protobuf8internal11InitSCCImplEPNS1_11SCCInfoBaseE(ptr noundef nonnull @scc_info_ModelProto_sentencepiece_5fmodel_2eproto)
          to label %9 unwind label %11

9:                                                ; preds = %_ZN6google8protobuf8internal7HasBitsILm1EEC2Ev.exit, %8
  %10 = getelementptr inbounds nuw i8, ptr %0, i64 72
  tail call void @llvm.memset.p0.i64(ptr noundef nonnull align 8 dereferenceable(32) %10, i8 0, i64 32, i1 false)
  ret void

11:                                               ; preds = %8
  %12 = landingpad { ptr, i32 }
          cleanup
  tail call void @_ZN6google8protobuf16RepeatedPtrFieldIN13sentencepiece24ModelProto_SentencePieceEED2Ev(ptr noundef nonnull align 8 dereferenceable(24) %5) #25
  tail call void @_ZN6google8protobuf8internal12ExtensionSetD1Ev(ptr noundef nonnull align 8 dereferenceable(24) %3) #25
  resume { ptr, i32 } %12
}